; Function Attrs: mustprogress nounwind uwtable
define hidden void @_ZN18JfrRecorderService14open_new_chunkEb(ptr nocapture noundef nonnull readonly align 8 dereferenceable(48) %0, i1 noundef zeroext %1) local_unnamed_addr #0 align 2 {
  tail call void @_ZN16JfrChunkRotation11on_rotationEv() #14
  %3 = getelementptr inbounds i8, ptr %0, i64 16
  %4 = load ptr, ptr %3, align 8
  %5 = tail call noundef zeroext i1 @_ZN13JfrRepository10open_chunkEb(ptr noundef nonnull align 8 dereferenceable(16) %4, i1 noundef zeroext %1) #14
  %6 = tail call noundef nonnull align 8 dereferenceable(49) ptr @_ZN10JfrStorage7controlEv() #14
  tail call void @_ZN17JfrStorageControl11set_to_diskEb(ptr noundef nonnull align 8 dereferenceable(49) %6, i1 noundef zeroext %5) #14
  br i1 %5, label %7, label %10

7:                                                ; preds = %2
  %8 = load ptr, ptr %0, align 8
  %9 = tail call noundef i64 @_ZN20JfrCheckpointManager33write_static_type_set_and_threadsEv(ptr noundef nonnull align 8 dereferenceable(32) %8) #14
  br label %10

10:                                               ; preds = %7, %2
  ret void
}